
chal:     file format elf64-x86-64


Disassembly of section .init:

0000000000001000 <_init>:
    1000:	f3 0f 1e fa          	endbr64 
    1004:	48 83 ec 08          	sub    $0x8,%rsp
    1008:	48 8b 05 d9 2f 00 00 	mov    0x2fd9(%rip),%rax        # 3fe8 <__gmon_start__>
    100f:	48 85 c0             	test   %rax,%rax
    1012:	74 02                	je     1016 <_init+0x16>
    1014:	ff d0                	call   *%rax
    1016:	48 83 c4 08          	add    $0x8,%rsp
    101a:	c3                   	ret    

Disassembly of section .plt:

0000000000001020 <.plt>:
    1020:	ff 35 72 2f 00 00    	push   0x2f72(%rip)        # 3f98 <_GLOBAL_OFFSET_TABLE_+0x8>
    1026:	f2 ff 25 73 2f 00 00 	bnd jmp *0x2f73(%rip)        # 3fa0 <_GLOBAL_OFFSET_TABLE_+0x10>
    102d:	0f 1f 00             	nopl   (%rax)
    1030:	f3 0f 1e fa          	endbr64 
    1034:	68 00 00 00 00       	push   $0x0
    1039:	f2 e9 e1 ff ff ff    	bnd jmp 1020 <.plt>
    103f:	90                   	nop
    1040:	f3 0f 1e fa          	endbr64 
    1044:	68 01 00 00 00       	push   $0x1
    1049:	f2 e9 d1 ff ff ff    	bnd jmp 1020 <.plt>
    104f:	90                   	nop
    1050:	f3 0f 1e fa          	endbr64 
    1054:	68 02 00 00 00       	push   $0x2
    1059:	f2 e9 c1 ff ff ff    	bnd jmp 1020 <.plt>
    105f:	90                   	nop
    1060:	f3 0f 1e fa          	endbr64 
    1064:	68 03 00 00 00       	push   $0x3
    1069:	f2 e9 b1 ff ff ff    	bnd jmp 1020 <.plt>
    106f:	90                   	nop
    1070:	f3 0f 1e fa          	endbr64 
    1074:	68 04 00 00 00       	push   $0x4
    1079:	f2 e9 a1 ff ff ff    	bnd jmp 1020 <.plt>
    107f:	90                   	nop
    1080:	f3 0f 1e fa          	endbr64 
    1084:	68 05 00 00 00       	push   $0x5
    1089:	f2 e9 91 ff ff ff    	bnd jmp 1020 <.plt>
    108f:	90                   	nop

Disassembly of section .plt.got:

0000000000001090 <__cxa_finalize@plt>:
    1090:	f3 0f 1e fa          	endbr64 
    1094:	f2 ff 25 5d 2f 00 00 	bnd jmp *0x2f5d(%rip)        # 3ff8 <__cxa_finalize@GLIBC_2.2.5>
    109b:	0f 1f 44 00 00       	nopl   0x0(%rax,%rax,1)

Disassembly of section .plt.sec:

00000000000010a0 <puts@plt>:
    10a0:	f3 0f 1e fa          	endbr64 
    10a4:	f2 ff 25 fd 2e 00 00 	bnd jmp *0x2efd(%rip)        # 3fa8 <puts@GLIBC_2.2.5>
    10ab:	0f 1f 44 00 00       	nopl   0x0(%rax,%rax,1)

00000000000010b0 <__stack_chk_fail@plt>:
    10b0:	f3 0f 1e fa          	endbr64 
    10b4:	f2 ff 25 f5 2e 00 00 	bnd jmp *0x2ef5(%rip)        # 3fb0 <__stack_chk_fail@GLIBC_2.4>
    10bb:	0f 1f 44 00 00       	nopl   0x0(%rax,%rax,1)

00000000000010c0 <setbuf@plt>:
    10c0:	f3 0f 1e fa          	endbr64 
    10c4:	f2 ff 25 ed 2e 00 00 	bnd jmp *0x2eed(%rip)        # 3fb8 <setbuf@GLIBC_2.2.5>
    10cb:	0f 1f 44 00 00       	nopl   0x0(%rax,%rax,1)

00000000000010d0 <printf@plt>:
    10d0:	f3 0f 1e fa          	endbr64 
    10d4:	f2 ff 25 e5 2e 00 00 	bnd jmp *0x2ee5(%rip)        # 3fc0 <printf@GLIBC_2.2.5>
    10db:	0f 1f 44 00 00       	nopl   0x0(%rax,%rax,1)

00000000000010e0 <alarm@plt>:
    10e0:	f3 0f 1e fa          	endbr64 
    10e4:	f2 ff 25 dd 2e 00 00 	bnd jmp *0x2edd(%rip)        # 3fc8 <alarm@GLIBC_2.2.5>
    10eb:	0f 1f 44 00 00       	nopl   0x0(%rax,%rax,1)

00000000000010f0 <read@plt>:
    10f0:	f3 0f 1e fa          	endbr64 
    10f4:	f2 ff 25 d5 2e 00 00 	bnd jmp *0x2ed5(%rip)        # 3fd0 <read@GLIBC_2.2.5>
    10fb:	0f 1f 44 00 00       	nopl   0x0(%rax,%rax,1)

Disassembly of section .text:

0000000000001100 <_start>:
    1100:	f3 0f 1e fa          	endbr64 
    1104:	31 ed                	xor    %ebp,%ebp
    1106:	49 89 d1             	mov    %rdx,%r9
    1109:	5e                   	pop    %rsi
    110a:	48 89 e2             	mov    %rsp,%rdx
    110d:	48 83 e4 f0          	and    $0xfffffffffffffff0,%rsp
    1111:	50                   	push   %rax
    1112:	54                   	push   %rsp
    1113:	4c 8d 05 46 02 00 00 	lea    0x246(%rip),%r8        # 1360 <__libc_csu_fini>
    111a:	48 8d 0d cf 01 00 00 	lea    0x1cf(%rip),%rcx        # 12f0 <__libc_csu_init>
    1121:	48 8d 3d 76 01 00 00 	lea    0x176(%rip),%rdi        # 129e <main>
    1128:	ff 15 b2 2e 00 00    	call   *0x2eb2(%rip)        # 3fe0 <__libc_start_main@GLIBC_2.2.5>
    112e:	f4                   	hlt    
    112f:	90                   	nop

0000000000001130 <deregister_tm_clones>:
    1130:	48 8d 3d d9 2e 00 00 	lea    0x2ed9(%rip),%rdi        # 4010 <stdout@@GLIBC_2.2.5>
    1137:	48 8d 05 d2 2e 00 00 	lea    0x2ed2(%rip),%rax        # 4010 <stdout@@GLIBC_2.2.5>
    113e:	48 39 f8             	cmp    %rdi,%rax
    1141:	74 15                	je     1158 <deregister_tm_clones+0x28>
    1143:	48 8b 05 8e 2e 00 00 	mov    0x2e8e(%rip),%rax        # 3fd8 <_ITM_deregisterTMCloneTable>
    114a:	48 85 c0             	test   %rax,%rax
    114d:	74 09                	je     1158 <deregister_tm_clones+0x28>
    114f:	ff e0                	jmp    *%rax
    1151:	0f 1f 80 00 00 00 00 	nopl   0x0(%rax)
    1158:	c3                   	ret    
    1159:	0f 1f 80 00 00 00 00 	nopl   0x0(%rax)

0000000000001160 <register_tm_clones>:
    1160:	48 8d 3d a9 2e 00 00 	lea    0x2ea9(%rip),%rdi        # 4010 <stdout@@GLIBC_2.2.5>
    1167:	48 8d 35 a2 2e 00 00 	lea    0x2ea2(%rip),%rsi        # 4010 <stdout@@GLIBC_2.2.5>
    116e:	48 29 fe             	sub    %rdi,%rsi
    1171:	48 89 f0             	mov    %rsi,%rax
    1174:	48 c1 ee 3f          	shr    $0x3f,%rsi
    1178:	48 c1 f8 03          	sar    $0x3,%rax
    117c:	48 01 c6             	add    %rax,%rsi
    117f:	48 d1 fe             	sar    %rsi
    1182:	74 14                	je     1198 <register_tm_clones+0x38>
    1184:	48 8b 05 65 2e 00 00 	mov    0x2e65(%rip),%rax        # 3ff0 <_ITM_registerTMCloneTable>
    118b:	48 85 c0             	test   %rax,%rax
    118e:	74 08                	je     1198 <register_tm_clones+0x38>
    1190:	ff e0                	jmp    *%rax
    1192:	66 0f 1f 44 00 00    	nopw   0x0(%rax,%rax,1)
    1198:	c3                   	ret    
    1199:	0f 1f 80 00 00 00 00 	nopl   0x0(%rax)

00000000000011a0 <__do_global_dtors_aux>:
    11a0:	f3 0f 1e fa          	endbr64 
    11a4:	80 3d 7d 2e 00 00 00 	cmpb   $0x0,0x2e7d(%rip)        # 4028 <completed.8061>
    11ab:	75 2b                	jne    11d8 <__do_global_dtors_aux+0x38>
    11ad:	55                   	push   %rbp
    11ae:	48 83 3d 42 2e 00 00 	cmpq   $0x0,0x2e42(%rip)        # 3ff8 <__cxa_finalize@GLIBC_2.2.5>
    11b5:	00 
    11b6:	48 89 e5             	mov    %rsp,%rbp
    11b9:	74 0c                	je     11c7 <__do_global_dtors_aux+0x27>
    11bb:	48 8b 3d 46 2e 00 00 	mov    0x2e46(%rip),%rdi        # 4008 <__dso_handle>
    11c2:	e8 c9 fe ff ff       	call   1090 <__cxa_finalize@plt>
    11c7:	e8 64 ff ff ff       	call   1130 <deregister_tm_clones>
    11cc:	c6 05 55 2e 00 00 01 	movb   $0x1,0x2e55(%rip)        # 4028 <completed.8061>
    11d3:	5d                   	pop    %rbp
    11d4:	c3                   	ret    
    11d5:	0f 1f 00             	nopl   (%rax)
    11d8:	c3                   	ret    
    11d9:	0f 1f 80 00 00 00 00 	nopl   0x0(%rax)

00000000000011e0 <frame_dummy>:
    11e0:	f3 0f 1e fa          	endbr64 
    11e4:	e9 77 ff ff ff       	jmp    1160 <register_tm_clones>

00000000000011e9 <vuln>:
    11e9:	f3 0f 1e fa          	endbr64 
    11ed:	55                   	push   %rbp
    11ee:	48 89 e5             	mov    %rsp,%rbp
    11f1:	48 81 ec 10 01 00 00 	sub    $0x110,%rsp
    11f8:	64 48 8b 04 25 28 00 	mov    %fs:0x28,%rax
    11ff:	00 00 
    1201:	48 89 45 f8          	mov    %rax,-0x8(%rbp)
    1205:	31 c0                	xor    %eax,%eax
    1207:	48 8d 3d f6 0d 00 00 	lea    0xdf6(%rip),%rdi        # 2004 <_IO_stdin_used+0x4>
    120e:	e8 8d fe ff ff       	call   10a0 <puts@plt>
    1213:	48 8d 85 f0 fe ff ff 	lea    -0x110(%rbp),%rax
    121a:	ba 37 13 00 00       	mov    $0x1337,%edx
    121f:	48 89 c6             	mov    %rax,%rsi
    1222:	bf 00 00 00 00       	mov    $0x0,%edi
    1227:	e8 c4 fe ff ff       	call   10f0 <read@plt>
    122c:	48 8d 85 f0 fe ff ff 	lea    -0x110(%rbp),%rax
    1233:	48 89 c6             	mov    %rax,%rsi
    1236:	48 8d 3d d9 0d 00 00 	lea    0xdd9(%rip),%rdi        # 2016 <_IO_stdin_used+0x16>
    123d:	b8 00 00 00 00       	mov    $0x0,%eax
    1242:	e8 89 fe ff ff       	call   10d0 <printf@plt>
    1247:	48 8d 3d d3 0d 00 00 	lea    0xdd3(%rip),%rdi        # 2021 <_IO_stdin_used+0x21>
    124e:	e8 4d fe ff ff       	call   10a0 <puts@plt>
    1253:	48 8d 85 f0 fe ff ff 	lea    -0x110(%rbp),%rax
    125a:	ba 37 13 00 00       	mov    $0x1337,%edx
    125f:	48 89 c6             	mov    %rax,%rsi
    1262:	bf 00 00 00 00       	mov    $0x0,%edi
    1267:	e8 84 fe ff ff       	call   10f0 <read@plt>
    126c:	48 8d 85 f0 fe ff ff 	lea    -0x110(%rbp),%rax
    1273:	48 89 c6             	mov    %rax,%rsi
    1276:	48 8d 3d b5 0d 00 00 	lea    0xdb5(%rip),%rdi        # 2032 <_IO_stdin_used+0x32>
    127d:	b8 00 00 00 00       	mov    $0x0,%eax
    1282:	e8 49 fe ff ff       	call   10d0 <printf@plt>
    1287:	90                   	nop
    1288:	48 8b 45 f8          	mov    -0x8(%rbp),%rax
    128c:	64 48 33 04 25 28 00 	xor    %fs:0x28,%rax
    1293:	00 00 
    1295:	74 05                	je     129c <vuln+0xb3>
    1297:	e8 14 fe ff ff       	call   10b0 <__stack_chk_fail@plt>
    129c:	c9                   	leave  
    129d:	c3                   	ret    

000000000000129e <main>:
    129e:	f3 0f 1e fa          	endbr64 
    12a2:	55                   	push   %rbp
    12a3:	48 89 e5             	mov    %rsp,%rbp
    12a6:	bf 3c 00 00 00       	mov    $0x3c,%edi
    12ab:	e8 30 fe ff ff       	call   10e0 <alarm@plt>
    12b0:	48 8b 05 59 2d 00 00 	mov    0x2d59(%rip),%rax        # 4010 <stdout@@GLIBC_2.2.5>
    12b7:	be 00 00 00 00       	mov    $0x0,%esi
    12bc:	48 89 c7             	mov    %rax,%rdi
    12bf:	e8 fc fd ff ff       	call   10c0 <setbuf@plt>
    12c4:	48 8b 05 55 2d 00 00 	mov    0x2d55(%rip),%rax        # 4020 <stdin@@GLIBC_2.2.5>
    12cb:	be 00 00 00 00       	mov    $0x0,%esi
    12d0:	48 89 c7             	mov    %rax,%rdi
    12d3:	e8 e8 fd ff ff       	call   10c0 <setbuf@plt>
    12d8:	b8 00 00 00 00       	mov    $0x0,%eax
    12dd:	e8 07 ff ff ff       	call   11e9 <vuln>
    12e2:	b8 00 00 00 00       	mov    $0x0,%eax
    12e7:	5d                   	pop    %rbp
    12e8:	c3                   	ret    
    12e9:	0f 1f 80 00 00 00 00 	nopl   0x0(%rax)

00000000000012f0 <__libc_csu_init>:
    12f0:	f3 0f 1e fa          	endbr64 
    12f4:	41 57                	push   %r15
    12f6:	4c 8d 3d 93 2a 00 00 	lea    0x2a93(%rip),%r15        # 3d90 <__frame_dummy_init_array_entry>
    12fd:	41 56                	push   %r14
    12ff:	49 89 d6             	mov    %rdx,%r14
    1302:	41 55                	push   %r13
    1304:	49 89 f5             	mov    %rsi,%r13
    1307:	41 54                	push   %r12
    1309:	41 89 fc             	mov    %edi,%r12d
    130c:	55                   	push   %rbp
    130d:	48 8d 2d 84 2a 00 00 	lea    0x2a84(%rip),%rbp        # 3d98 <__do_global_dtors_aux_fini_array_entry>
    1314:	53                   	push   %rbx
    1315:	4c 29 fd             	sub    %r15,%rbp
    1318:	48 83 ec 08          	sub    $0x8,%rsp
    131c:	e8 df fc ff ff       	call   1000 <_init>
    1321:	48 c1 fd 03          	sar    $0x3,%rbp
    1325:	74 1f                	je     1346 <__libc_csu_init+0x56>
    1327:	31 db                	xor    %ebx,%ebx
    1329:	0f 1f 80 00 00 00 00 	nopl   0x0(%rax)
    1330:	4c 89 f2             	mov    %r14,%rdx
    1333:	4c 89 ee             	mov    %r13,%rsi
    1336:	44 89 e7             	mov    %r12d,%edi
    1339:	41 ff 14 df          	call   *(%r15,%rbx,8)
    133d:	48 83 c3 01          	add    $0x1,%rbx
    1341:	48 39 dd             	cmp    %rbx,%rbp
    1344:	75 ea                	jne    1330 <__libc_csu_init+0x40>
    1346:	48 83 c4 08          	add    $0x8,%rsp
    134a:	5b                   	pop    %rbx
    134b:	5d                   	pop    %rbp
    134c:	41 5c                	pop    %r12
    134e:	41 5d                	pop    %r13
    1350:	41 5e                	pop    %r14
    1352:	41 5f                	pop    %r15
    1354:	c3                   	ret    
    1355:	66 66 2e 0f 1f 84 00 	data16 cs nopw 0x0(%rax,%rax,1)
    135c:	00 00 00 00 

0000000000001360 <__libc_csu_fini>:
    1360:	f3 0f 1e fa          	endbr64 
    1364:	c3                   	ret    

Disassembly of section .fini:

0000000000001368 <_fini>:
    1368:	f3 0f 1e fa          	endbr64 
    136c:	48 83 ec 08          	sub    $0x8,%rsp
    1370:	48 83 c4 08          	add    $0x8,%rsp
    1374:	c3                   	ret    
